target datalayout = "e-m:e-p270:32:32-p271:32:32-p272:64:64-i64:64-i128:128-f80:128-n8:16:32:64-S128"
target triple = "x86_64-pc-linux-gnu"

%struct.RTMPPacket = type { i32, i32, i32, i32, i32, ptr, i32, i32, i32 }

; Function Attrs: nounwind uwtable
define void @ff_rtmp_packet_destroy(ptr noundef %0) #0 {
  %2 = alloca ptr, align 8
  store ptr %0, ptr %2, align 8, !tbaa !30
  %3 = load ptr, ptr %2, align 8, !tbaa !30
  %4 = icmp ne ptr %3, null
  br i1 %4, label %6, label %5

5:                                                ; preds = %1
  br label %11

6:                                                ; preds = %1
  %7 = load ptr, ptr %2, align 8, !tbaa !30
  %8 = getelementptr inbounds nuw %struct.RTMPPacket, ptr %7, i32 0, i32 5
  call void @av_freep(ptr noundef %8)
  %9 = load ptr, ptr %2, align 8, !tbaa !30
  %10 = getelementptr inbounds nuw %struct.RTMPPacket, ptr %9, i32 0, i32 6
  store i32 0, ptr %10, align 8, !tbaa !34
  br label %11

11:                                               ; preds = %6, %5
  ret void
}