; Function Attrs: nounwind uwtable
define void @ff_rtmp_packet_destroy(ptr noundef %0) local_unnamed_addr #5 {
  %.not = icmp eq ptr %0, null
  br i1 %.not, label %5, label %2

2:                                                ; preds = %1
  %3 = getelementptr inbounds nuw i8, ptr %0, i64 24
  tail call void @av_freep(ptr noundef nonnull %3) #16
  %4 = getelementptr inbounds nuw i8, ptr %0, i64 32
  store i32 0, ptr %4, align 8, !tbaa !19
  br label %5

5:                                                ; preds = %1, %2
  ret void
}